target datalayout = "e-m:e-p270:32:32-p271:32:32-p272:64:64-i64:64-i128:128-f80:128-n8:16:32:64-S128"
target triple = "x86_64-pc-linux-gnu"

%struct.H5O_storage_chunk_t = type { i32, i64, ptr, %union.anon.4 }
%union.anon.4 = type { %struct.H5O_storage_chunk_btree_t }
%struct.H5O_storage_chunk_btree_t = type { i64, ptr }
%struct.H5O_storage_chunk_farray_t = type { i64, ptr }

@.str.2 = private unnamed_addr constant [103 x i8] c"generated/home/dtcxzyw/WorkSpace/Projects/compilers/llvm-opt-benchmark/bench/hdf5/hdf5/src/H5Dfarray.c\00", align 1
@H5E_DATASET_g = external global i64, align 8
@H5E_CANTCLOSEOBJ_g = external global i64, align 8
@.str.21 = private unnamed_addr constant [28 x i8] c"unable to close fixed array\00", align 1
@__func__.H5D__farray_idx_copy_shutdown = private unnamed_addr constant [30 x i8] c"H5D__farray_idx_copy_shutdown\00", align 1

; Function Attrs: nounwind uwtable
define internal i32 @H5D__farray_idx_copy_shutdown(ptr noundef %0, ptr noundef %1) #0 {
  %3 = alloca ptr, align 8
  %4 = alloca ptr, align 8
  %5 = alloca i32, align 4
  %6 = alloca i8, align 1
  store ptr %0, ptr %3, align 8
  store ptr %1, ptr %4, align 8
  store i32 0, ptr %5, align 4
  store i8 0, ptr %6, align 1
  %7 = load ptr, ptr %3, align 8
  %8 = getelementptr inbounds %struct.H5O_storage_chunk_t, ptr %7, i32 0, i32 3
  %9 = getelementptr inbounds %struct.H5O_storage_chunk_farray_t, ptr %8, i32 0, i32 1
  %10 = load ptr, ptr %9, align 8
  %11 = call i32 @H5FA_close(ptr noundef %10)
  %12 = icmp slt i32 %11, 0
  br i1 %12, label %13, label %28

13:                                               ; preds = %2
  br label %14

14:                                               ; preds = %13
  br label %15

15:                                               ; preds = %14
  br label %16

16:                                               ; preds = %15
  %17 = load i64, ptr @H5E_DATASET_g, align 8
  %18 = load i64, ptr @H5E_CANTCLOSEOBJ_g, align 8
  %19 = call i32 (ptr, ptr, i32, i64, i64, ptr, ...) @H5E_printf_stack(ptr noundef @.str.2, ptr noundef @__func__.H5D__farray_idx_copy_shutdown, i32 noundef 1506, i64 noundef %17, i64 noundef %18, ptr noundef @.str.21)
  br label %20

20:                                               ; preds = %16
  store i8 1, ptr %6, align 1
  %21 = load i8, ptr %6, align 1
  %22 = trunc i8 %21 to i1
  %23 = zext i1 %22 to i8
  store i8 %23, ptr %6, align 1
  br label %24

24:                                               ; preds = %20
  br label %25

25:                                               ; preds = %24
  store i32 -1, ptr %5, align 4
  br label %57

26:                                               ; No predecessors!
  br label %27

27:                                               ; preds = %26
  br label %28

28:                                               ; preds = %27, %2
  %29 = load ptr, ptr %3, align 8
  %30 = getelementptr inbounds %struct.H5O_storage_chunk_t, ptr %29, i32 0, i32 3
  %31 = getelementptr inbounds %struct.H5O_storage_chunk_farray_t, ptr %30, i32 0, i32 1
  store ptr null, ptr %31, align 8
  %32 = load ptr, ptr %4, align 8
  %33 = getelementptr inbounds %struct.H5O_storage_chunk_t, ptr %32, i32 0, i32 3
  %34 = getelementptr inbounds %struct.H5O_storage_chunk_farray_t, ptr %33, i32 0, i32 1
  %35 = load ptr, ptr %34, align 8
  %36 = call i32 @H5FA_close(ptr noundef %35)
  %37 = icmp slt i32 %36, 0
  br i1 %37, label %38, label %53

38:                                               ; preds = %28
  br label %39

39:                                               ; preds = %38
  br label %40

40:                                               ; preds = %39
  br label %41

41:                                               ; preds = %40
  %42 = load i64, ptr @H5E_DATASET_g, align 8
  %43 = load i64, ptr @H5E_CANTCLOSEOBJ_g, align 8
  %44 = call i32 (ptr, ptr, i32, i64, i64, ptr, ...) @H5E_printf_stack(ptr noundef @.str.2, ptr noundef @__func__.H5D__farray_idx_copy_shutdown, i32 noundef 1509, i64 noundef %42, i64 noundef %43, ptr noundef @.str.21)
  br label %45

45:                                               ; preds = %41
  store i8 1, ptr %6, align 1
  %46 = load i8, ptr %6, align 1
  %47 = trunc i8 %46 to i1
  %48 = zext i1 %47 to i8
  store i8 %48, ptr %6, align 1
  br label %49

49:                                               ; preds = %45
  br label %50

50:                                               ; preds = %49
  store i32 -1, ptr %5, align 4
  br label %57

51:                                               ; No predecessors!
  br label %52

52:                                               ; preds = %51
  br label %53

53:                                               ; preds = %52, %28
  %54 = load ptr, ptr %4, align 8
  %55 = getelementptr inbounds %struct.H5O_storage_chunk_t, ptr %54, i32 0, i32 3
  %56 = getelementptr inbounds %struct.H5O_storage_chunk_farray_t, ptr %55, i32 0, i32 1
  store ptr null, ptr %56, align 8
  br label %57

57:                                               ; preds = %53, %50, %25
  %58 = load i32, ptr %5, align 4
  ret i32 %58
}