; Function Attrs: nounwind uwtable
define internal range(i32 -1, 1) i32 @H5D__farray_idx_copy_shutdown(ptr nocapture noundef %0, ptr nocapture noundef %1) #1 {
  %3 = getelementptr inbounds i8, ptr %0, i64 32
  %4 = load ptr, ptr %3, align 8
  %5 = tail call i32 @H5FA_close(ptr noundef %4) #11
  %6 = icmp slt i32 %5, 0
  br i1 %6, label %7, label %11

7:                                                ; preds = %2
  %8 = load i64, ptr @H5E_DATASET_g, align 8
  %9 = load i64, ptr @H5E_CANTCLOSEOBJ_g, align 8
  %10 = tail call i32 (ptr, ptr, i32, i64, i64, ptr, ...) @H5E_printf_stack(ptr noundef nonnull @.str.2, ptr noundef nonnull @__func__.H5D__farray_idx_copy_shutdown, i32 noundef 1506, i64 noundef %8, i64 noundef %9, ptr noundef nonnull @.str.21) #11
  br label %21

11:                                               ; preds = %2
  store ptr null, ptr %3, align 8
  %12 = getelementptr inbounds i8, ptr %1, i64 32
  %13 = load ptr, ptr %12, align 8
  %14 = tail call i32 @H5FA_close(ptr noundef %13) #11
  %15 = icmp slt i32 %14, 0
  br i1 %15, label %16, label %20

16:                                               ; preds = %11
  %17 = load i64, ptr @H5E_DATASET_g, align 8
  %18 = load i64, ptr @H5E_CANTCLOSEOBJ_g, align 8
  %19 = tail call i32 (ptr, ptr, i32, i64, i64, ptr, ...) @H5E_printf_stack(ptr noundef nonnull @.str.2, ptr noundef nonnull @__func__.H5D__farray_idx_copy_shutdown, i32 noundef 1509, i64 noundef %17, i64 noundef %18, ptr noundef nonnull @.str.21) #11
  br label %21

20:                                               ; preds = %11
  store ptr null, ptr %12, align 8
  br label %21

21:                                               ; preds = %20, %16, %7
  %.0 = phi i32 [ -1, %7 ], [ -1, %16 ], [ 0, %20 ]
  ret i32 %.0
}